; Function Attrs: mustprogress uwtable
define dso_local void @_ZN4Luau4Json5writeERNS0_11JsonEmitterEb(ptr noundef nonnull align 8 dereferenceable(32) %0, i1 noundef zeroext %1) local_unnamed_addr #0 personality ptr @__gxx_personality_v0 {
  br i1 %1, label %3, label %4

3:                                                ; preds = %2
  tail call void @_ZN4Luau4Json11JsonEmitter8writeRawESt17basic_string_viewIcSt11char_traitsIcEE(ptr noundef nonnull align 8 dereferenceable(32) %0, i64 4, ptr nonnull @.str.1)
  br label %5

4:                                                ; preds = %2
  tail call void @_ZN4Luau4Json11JsonEmitter8writeRawESt17basic_string_viewIcSt11char_traitsIcEE(ptr noundef nonnull align 8 dereferenceable(32) %0, i64 5, ptr nonnull @.str.2)
  br label %5

5:                                                ; preds = %4, %3
  ret void
}